; Function Attrs: mustprogress nounwind uwtable
define void @_ZNK3spv10spirvbin_t8validateEv(ptr noundef nonnull align 8 dereferenceable(473) %0) local_unnamed_addr #0 align 2 {
  %2 = alloca %"class.std::__cxx11::basic_string", align 8
  %3 = alloca %"class.std::allocator.74", align 1
  %4 = alloca %"class.std::__cxx11::basic_string", align 8
  %5 = alloca %"class.std::allocator.74", align 1
  %6 = alloca %"class.std::__cxx11::basic_string", align 8
  %7 = alloca %"class.std::allocator.74", align 1
  %8 = alloca %"class.std::__cxx11::basic_string", align 8
  %9 = alloca %"class.std::allocator.74", align 1
  call void @_ZNSaIcEC1Ev(ptr noundef nonnull align 1 dereferenceable(1) %3) #24
  %10 = call noundef ptr @_ZNSt7__cxx1112basic_stringIcSt11char_traitsIcESaIcEE13_M_local_dataEv(ptr noundef nonnull align 8 dereferenceable(32) %2) #24
  call void @_ZNSt7__cxx1112basic_stringIcSt11char_traitsIcESaIcEE12_Alloc_hiderC1EPcRKS3_(ptr noundef nonnull align 8 dereferenceable(8) %2, ptr noundef %10, ptr noundef nonnull align 1 dereferenceable(1) %3) #24
  call void @_ZNSt7__cxx1112basic_stringIcSt11char_traitsIcESaIcEE12_M_constructIPKcEEvT_S8_St20forward_iterator_tag(ptr noundef nonnull align 8 dereferenceable(32) %2, ptr noundef nonnull @.str.7, ptr noundef nonnull getelementptr inbounds (i8, ptr @.str.7, i64 12))
  %11 = load ptr, ptr %0, align 8
  %12 = getelementptr inbounds i8, ptr %11, i64 16
  %13 = load ptr, ptr %12, align 8
  call void %13(ptr noundef nonnull align 8 dereferenceable(473) %0, i32 noundef 2, i32 noundef 2, ptr noundef nonnull align 8 dereferenceable(32) %2) #24
  call void @_ZNSt7__cxx1112basic_stringIcSt11char_traitsIcESaIcEED1Ev(ptr noundef nonnull align 8 dereferenceable(32) %2) #24
  call void @_ZNSaIcED1Ev(ptr noundef nonnull align 1 dereferenceable(1) %3) #24
  %14 = getelementptr inbounds i8, ptr %0, i64 8
  %15 = getelementptr inbounds i8, ptr %0, i64 16
  %16 = load ptr, ptr %15, align 8
  %17 = load ptr, ptr %14, align 8
  %18 = ptrtoint ptr %16 to i64
  %19 = ptrtoint ptr %17 to i64
  %20 = sub i64 %18, %19
  %21 = icmp ult i64 %20, 17
  br i1 %21, label %22, label %27

22:                                               ; preds = %1
  call void @_ZNSaIcEC1Ev(ptr noundef nonnull align 1 dereferenceable(1) %5) #24
  %23 = call noundef ptr @_ZNSt7__cxx1112basic_stringIcSt11char_traitsIcESaIcEE13_M_local_dataEv(ptr noundef nonnull align 8 dereferenceable(32) %4) #24
  call void @_ZNSt7__cxx1112basic_stringIcSt11char_traitsIcESaIcEE12_Alloc_hiderC1EPcRKS3_(ptr noundef nonnull align 8 dereferenceable(8) %4, ptr noundef %23, ptr noundef nonnull align 1 dereferenceable(1) %5) #24
  call void @_ZNSt7__cxx1112basic_stringIcSt11char_traitsIcESaIcEE12_M_constructIPKcEEvT_S8_St20forward_iterator_tag(ptr noundef nonnull align 8 dereferenceable(32) %4, ptr noundef nonnull @.str.8, ptr noundef nonnull getelementptr inbounds (i8, ptr @.str.8, i64 16))
  %24 = getelementptr inbounds i8, ptr %0, i64 472
  store i8 1, ptr %24, align 8
  %25 = load ptr, ptr getelementptr inbounds (i8, ptr @_ZN3spv10spirvbin_t12errorHandlerB5cxx11E, i64 16), align 8
  %.not.i.i.i = icmp eq ptr %25, null
  br i1 %.not.i.i.i, label %26, label %.sink.split

26:                                               ; preds = %22
  call void @_ZSt25__throw_bad_function_callv() #25
  unreachable

27:                                               ; preds = %1
  %28 = load i32, ptr %17, align 4
  %.not = icmp eq i32 %28, 119734787
  br i1 %.not, label %34, label %29

29:                                               ; preds = %27
  call void @_ZNSaIcEC1Ev(ptr noundef nonnull align 1 dereferenceable(1) %7) #24
  %30 = call noundef ptr @_ZNSt7__cxx1112basic_stringIcSt11char_traitsIcESaIcEE13_M_local_dataEv(ptr noundef nonnull align 8 dereferenceable(32) %6) #24
  call void @_ZNSt7__cxx1112basic_stringIcSt11char_traitsIcESaIcEE12_Alloc_hiderC1EPcRKS3_(ptr noundef nonnull align 8 dereferenceable(8) %6, ptr noundef %30, ptr noundef nonnull align 1 dereferenceable(1) %7) #24
  call void @_ZNSt7__cxx1112basic_stringIcSt11char_traitsIcESaIcEE12_M_constructIPKcEEvT_S8_St20forward_iterator_tag(ptr noundef nonnull align 8 dereferenceable(32) %6, ptr noundef nonnull @.str.9, ptr noundef nonnull getelementptr inbounds (i8, ptr @.str.9, i64 16))
  %31 = getelementptr inbounds i8, ptr %0, i64 472
  store i8 1, ptr %31, align 8
  %32 = load ptr, ptr getelementptr inbounds (i8, ptr @_ZN3spv10spirvbin_t12errorHandlerB5cxx11E, i64 16), align 8
  %.not.i.i.i2 = icmp eq ptr %32, null
  br i1 %.not.i.i.i2, label %33, label %.sink.split

33:                                               ; preds = %29
  call void @_ZSt25__throw_bad_function_callv() #25
  unreachable

34:                                               ; preds = %27
  %35 = getelementptr inbounds i8, ptr %17, i64 16
  %36 = load i32, ptr %35, align 4
  %.not1 = icmp eq i32 %36, 0
  br i1 %.not1, label %43, label %37

37:                                               ; preds = %34
  call void @_ZNSaIcEC1Ev(ptr noundef nonnull align 1 dereferenceable(1) %9) #24
  %38 = call noundef ptr @_ZNSt7__cxx1112basic_stringIcSt11char_traitsIcESaIcEE13_M_local_dataEv(ptr noundef nonnull align 8 dereferenceable(32) %8) #24
  call void @_ZNSt7__cxx1112basic_stringIcSt11char_traitsIcESaIcEE12_Alloc_hiderC1EPcRKS3_(ptr noundef nonnull align 8 dereferenceable(8) %8, ptr noundef %38, ptr noundef nonnull align 1 dereferenceable(1) %9) #24
  call void @_ZNSt7__cxx1112basic_stringIcSt11char_traitsIcESaIcEE12_M_constructIPKcEEvT_S8_St20forward_iterator_tag(ptr noundef nonnull align 8 dereferenceable(32) %8, ptr noundef nonnull @.str.10, ptr noundef nonnull getelementptr inbounds (i8, ptr @.str.10, i64 21))
  %39 = getelementptr inbounds i8, ptr %0, i64 472
  store i8 1, ptr %39, align 8
  %40 = load ptr, ptr getelementptr inbounds (i8, ptr @_ZN3spv10spirvbin_t12errorHandlerB5cxx11E, i64 16), align 8
  %.not.i.i.i4 = icmp eq ptr %40, null
  br i1 %.not.i.i.i4, label %41, label %.sink.split

41:                                               ; preds = %37
  call void @_ZSt25__throw_bad_function_callv() #25
  unreachable

.sink.split:                                      ; preds = %37, %29, %22
  %.sink7 = phi ptr [ %4, %22 ], [ %6, %29 ], [ %8, %37 ]
  %.sink = phi ptr [ %5, %22 ], [ %7, %29 ], [ %9, %37 ]
  %42 = load ptr, ptr getelementptr inbounds (i8, ptr @_ZN3spv10spirvbin_t12errorHandlerB5cxx11E, i64 24), align 8
  call void %42(ptr noundef nonnull align 8 dereferenceable(16) @_ZN3spv10spirvbin_t12errorHandlerB5cxx11E, ptr noundef nonnull align 8 dereferenceable(32) %.sink7) #24
  call void @_ZNSt7__cxx1112basic_stringIcSt11char_traitsIcESaIcEED1Ev(ptr noundef nonnull align 8 dereferenceable(32) %.sink7) #24
  call void @_ZNSaIcED1Ev(ptr noundef nonnull align 1 dereferenceable(1) %.sink) #24
  br label %43

43:                                               ; preds = %.sink.split, %34
  ret void
}